; Function Attrs: nounwind uwtable
define ptr @l_Lean_Parser_addSyntaxNodeKind(ptr noundef %0, ptr noundef %1) local_unnamed_addr #1 {
  tail call void @lean_inc_heartbeat() #6
  %3 = tail call noalias ptr @mi_malloc_small(i64 noundef 16) #6
  %4 = icmp eq ptr %3, null
  br i1 %4, label %5, label %lean_alloc_ctor.exit

5:                                                ; preds = %2
  tail call void @lean_internal_panic_out_of_memory() #7
  unreachable

lean_alloc_ctor.exit:                             ; preds = %2
  %6 = getelementptr inbounds nuw i8, ptr %3, i64 4
  store i32 1, ptr %3, align 4, !tbaa !4
  store i32 16842768, ptr %6, align 4
  %7 = getelementptr inbounds nuw i8, ptr %3, i64 8
  store ptr %1, ptr %7, align 8, !tbaa !9
  %8 = load ptr, ptr @l_Lean_Parser_isParserCategory___closed__1, align 8, !tbaa !9
  %9 = tail call ptr @l_Lean_ScopedEnvExtension_addEntry___rarg(ptr noundef %8, ptr noundef %0, ptr noundef nonnull %3) #6
  ret ptr %9
}